target datalayout = "e-m:e-p270:32:32-p271:32:32-p272:64:64-i64:64-i128:128-f80:128-n8:16:32:64-S128"
target triple = "x86_64-pc-linux-gnu"

%struct.expert_field = type { i32, i32 }
%struct._e_guid_t = type { i32, i16, i16, [8 x i8] }

@hf_pn_io_mrp_domain_uuid = internal global i32 0, align 4
@hf_pn_io_mrp_role = internal global i32 0, align 4
@hf_pn_io_mrp_length_domain_name = internal global i32 0, align 4
@hf_pn_io_mrp_domain_name = internal global i32 0, align 4
@hf_pn_io_mrp_instance = internal global i32 0, align 4
@ei_pn_io_block_version = internal global %struct.expert_field zeroinitializer, align 4
@.str.1317 = private unnamed_addr constant [41 x i8] c"Block version %u.%u not implemented yet!\00", align 1

; Function Attrs: nounwind uwtable
define internal i32 @dissect_a_block(ptr noundef %0, i32 noundef %1, ptr noundef %2, ptr noundef %3, ptr noundef %4) #0 {
  %6 = alloca ptr, align 8
  %7 = alloca i32, align 4
  %8 = alloca ptr, align 8
  %9 = alloca ptr, align 8
  %10 = alloca ptr, align 8
  %11 = alloca i16, align 2
  %12 = alloca i32, align 4
  %13 = alloca ptr, align 8
  store ptr %0, ptr %6, align 8
  store i32 %1, ptr %7, align 4
  store ptr %2, ptr %8, align 8
  store ptr %3, ptr %9, align 8
  store ptr %4, ptr %10, align 8
  store i16 0, ptr %11, align 2
  store ptr null, ptr %13, align 8
  %14 = load ptr, ptr %6, align 8
  %15 = load i32, ptr %7, align 4
  %16 = load ptr, ptr %8, align 8
  %17 = load ptr, ptr %9, align 8
  %18 = load ptr, ptr %10, align 8
  %19 = call i32 @dissect_block(ptr noundef %14, i32 noundef %15, ptr noundef %16, ptr noundef %17, ptr noundef %18, ptr noundef %11, ptr noundef %12, ptr noundef %13)
  store i32 %19, ptr %7, align 4
  %20 = load ptr, ptr %13, align 8
  %21 = icmp ne ptr %20, null
  br i1 %21, label %22, label %27

22:                                               ; preds = %5
  %23 = load ptr, ptr %6, align 8
  %24 = load ptr, ptr %8, align 8
  %25 = load ptr, ptr %9, align 8
  %26 = load ptr, ptr %13, align 8
  call void @pnio_ar_info(ptr noundef %23, ptr noundef %24, ptr noundef %25, ptr noundef %26)
  br label %27

27:                                               ; preds = %22, %5
  %28 = load i32, ptr %7, align 4
  ret i32 %28
}

; Function Attrs: nounwind uwtable
define internal i32 @dissect_MrpInstanceDataAdjust_block(ptr noundef %0, i32 noundef %1, ptr noundef %2, ptr noundef %3, ptr noundef %4, ptr noundef %5, i8 noundef zeroext %6, i8 noundef zeroext %7, i16 noundef zeroext %8) #0 {
  %10 = alloca i32, align 4
  %11 = alloca ptr, align 8
  %12 = alloca i32, align 4
  %13 = alloca ptr, align 8
  %14 = alloca ptr, align 8
  %15 = alloca ptr, align 8
  %16 = alloca ptr, align 8
  %17 = alloca i8, align 1
  %18 = alloca i8, align 1
  %19 = alloca i16, align 2
  %20 = alloca i8, align 1
  %21 = alloca %struct._e_guid_t, align 4
  %22 = alloca i16, align 2
  %23 = alloca i8, align 1
  %24 = alloca i32, align 4
  store ptr %0, ptr %11, align 8
  store i32 %1, ptr %12, align 4
  store ptr %2, ptr %13, align 8
  store ptr %3, ptr %14, align 8
  store ptr %4, ptr %15, align 8
  store ptr %5, ptr %16, align 8
  store i8 %6, ptr %17, align 1
  store i8 %7, ptr %18, align 1
  store i16 %8, ptr %19, align 2
  %25 = load i32, ptr %12, align 4
  %26 = load i16, ptr %19, align 2
  %27 = zext i16 %26 to i32
  %28 = add i32 %25, %27
  store i32 %28, ptr %24, align 4
  %29 = load i8, ptr %17, align 1
  %30 = zext i8 %29 to i32
  %31 = icmp ne i32 %30, 1
  br i1 %31, label %36, label %32

32:                                               ; preds = %9
  %33 = load i8, ptr %18, align 1
  %34 = zext i8 %33 to i32
  %35 = icmp ne i32 %34, 0
  br i1 %35, label %36, label %45

36:                                               ; preds = %32, %9
  %37 = load ptr, ptr %13, align 8
  %38 = load ptr, ptr %15, align 8
  %39 = load i8, ptr %17, align 1
  %40 = zext i8 %39 to i32
  %41 = load i8, ptr %18, align 1
  %42 = zext i8 %41 to i32
  %43 = call ptr (ptr, ptr, ptr, ptr, ...) @expert_add_info_format(ptr noundef %37, ptr noundef %38, ptr noundef @ei_pn_io_block_version, ptr noundef @.str.1317, i32 noundef %40, i32 noundef %42)
  %44 = load i32, ptr %12, align 4
  store i32 %44, ptr %10, align 4
  br label %113

45:                                               ; preds = %32
  %46 = load ptr, ptr %11, align 8
  %47 = load i32, ptr %12, align 4
  %48 = load ptr, ptr %13, align 8
  %49 = load ptr, ptr %14, align 8
  %50 = call i32 @dissect_pn_padding(ptr noundef %46, i32 noundef %47, ptr noundef %48, ptr noundef %49, i32 noundef 1)
  store i32 %50, ptr %12, align 4
  %51 = load ptr, ptr %11, align 8
  %52 = load i32, ptr %12, align 4
  %53 = load ptr, ptr %13, align 8
  %54 = load ptr, ptr %14, align 8
  %55 = load ptr, ptr %16, align 8
  %56 = load i32, ptr @hf_pn_io_mrp_instance, align 4
  %57 = call i32 @dissect_dcerpc_uint8(ptr noundef %51, i32 noundef %52, ptr noundef %53, ptr noundef %54, ptr noundef %55, i32 noundef %56, ptr noundef %20)
  store i32 %57, ptr %12, align 4
  %58 = load ptr, ptr %11, align 8
  %59 = load i32, ptr %12, align 4
  %60 = load ptr, ptr %13, align 8
  %61 = load ptr, ptr %14, align 8
  %62 = load ptr, ptr %16, align 8
  %63 = load i32, ptr @hf_pn_io_mrp_domain_uuid, align 4
  %64 = call i32 @dissect_dcerpc_uuid_t(ptr noundef %58, i32 noundef %59, ptr noundef %60, ptr noundef %61, ptr noundef %62, i32 noundef %63, ptr noundef %21)
  store i32 %64, ptr %12, align 4
  %65 = load ptr, ptr %11, align 8
  %66 = load i32, ptr %12, align 4
  %67 = load ptr, ptr %13, align 8
  %68 = load ptr, ptr %14, align 8
  %69 = load ptr, ptr %16, align 8
  %70 = load i32, ptr @hf_pn_io_mrp_role, align 4
  %71 = call i32 @dissect_dcerpc_uint16(ptr noundef %65, i32 noundef %66, ptr noundef %67, ptr noundef %68, ptr noundef %69, i32 noundef %70, ptr noundef %22)
  store i32 %71, ptr %12, align 4
  %72 = load ptr, ptr %11, align 8
  %73 = load i32, ptr %12, align 4
  %74 = load ptr, ptr %13, align 8
  %75 = load ptr, ptr %14, align 8
  %76 = call i32 @dissect_pn_align4(ptr noundef %72, i32 noundef %73, ptr noundef %74, ptr noundef %75)
  store i32 %76, ptr %12, align 4
  %77 = load ptr, ptr %11, align 8
  %78 = load i32, ptr %12, align 4
  %79 = load ptr, ptr %13, align 8
  %80 = load ptr, ptr %14, align 8
  %81 = load ptr, ptr %16, align 8
  %82 = load i32, ptr @hf_pn_io_mrp_length_domain_name, align 4
  %83 = call i32 @dissect_dcerpc_uint8(ptr noundef %77, i32 noundef %78, ptr noundef %79, ptr noundef %80, ptr noundef %81, i32 noundef %82, ptr noundef %23)
  store i32 %83, ptr %12, align 4
  %84 = load ptr, ptr %14, align 8
  %85 = load i32, ptr @hf_pn_io_mrp_domain_name, align 4
  %86 = load ptr, ptr %11, align 8
  %87 = load i32, ptr %12, align 4
  %88 = load i8, ptr %23, align 1
  %89 = zext i8 %88 to i32
  %90 = call ptr @proto_tree_add_item(ptr noundef %84, i32 noundef %85, ptr noundef %86, i32 noundef %87, i32 noundef %89, i32 noundef 0)
  %91 = load i8, ptr %23, align 1
  %92 = zext i8 %91 to i32
  %93 = load i32, ptr %12, align 4
  %94 = add i32 %93, %92
  store i32 %94, ptr %12, align 4
  %95 = load ptr, ptr %11, align 8
  %96 = load i32, ptr %12, align 4
  %97 = load ptr, ptr %13, align 8
  %98 = load ptr, ptr %14, align 8
  %99 = call i32 @dissect_pn_align4(ptr noundef %95, i32 noundef %96, ptr noundef %97, ptr noundef %98)
  store i32 %99, ptr %12, align 4
  br label %100

100:                                              ; preds = %104, %45
  %101 = load i32, ptr %24, align 4
  %102 = load i32, ptr %12, align 4
  %103 = icmp sgt i32 %101, %102
  br i1 %103, label %104, label %111

104:                                              ; preds = %100
  %105 = load ptr, ptr %11, align 8
  %106 = load i32, ptr %12, align 4
  %107 = load ptr, ptr %13, align 8
  %108 = load ptr, ptr %14, align 8
  %109 = load ptr, ptr %16, align 8
  %110 = call i32 @dissect_a_block(ptr noundef %105, i32 noundef %106, ptr noundef %107, ptr noundef %108, ptr noundef %109)
  store i32 %110, ptr %12, align 4
  br label %100, !llvm.loop !60

111:                                              ; preds = %100
  %112 = load i32, ptr %12, align 4
  store i32 %112, ptr %10, align 4
  br label %113

113:                                              ; preds = %111, %36
  %114 = load i32, ptr %10, align 4
  ret i32 %114
}