; Function Attrs: nounwind uwtable
define internal fastcc void @dissect_MrpInstanceDataAdjust_block(ptr noundef %0, i32 noundef %1, ptr noundef %2, ptr noundef %3, ptr noundef %4, ptr noundef %5, i8 noundef zeroext %6, i8 noundef zeroext %7, i16 noundef zeroext %8) unnamed_addr #0 {
  %10 = alloca i16, align 2
  %11 = alloca i32, align 4
  %12 = alloca ptr, align 8
  %13 = alloca i8, align 1
  %14 = alloca %struct._e_guid_t, align 4
  %15 = alloca i16, align 2
  %16 = alloca i8, align 1
  %17 = zext i16 %8 to i32
  %18 = add i32 %1, %17
  %19 = icmp ne i8 %6, 1
  %20 = icmp ne i8 %7, 0
  %or.cond = or i1 %19, %20
  br i1 %or.cond, label %21, label %25

21:                                               ; preds = %9
  %22 = zext i8 %7 to i32
  %23 = zext i8 %6 to i32
  %24 = tail call ptr (ptr, ptr, ptr, ptr, ...) @expert_add_info_format(ptr noundef %2, ptr noundef %4, ptr noundef nonnull @ei_pn_io_block_version, ptr noundef nonnull @.str.1317, i32 noundef %23, i32 noundef %22) #11
  br label %.loopexit

25:                                               ; preds = %9
  %26 = tail call i32 @dissect_pn_padding(ptr noundef %0, i32 noundef %1, ptr noundef %2, ptr noundef %3, i32 noundef 1) #11
  %27 = load i32, ptr @hf_pn_io_mrp_instance, align 4
  %28 = call i32 @dissect_dcerpc_uint8(ptr noundef %0, i32 noundef %26, ptr noundef %2, ptr noundef %3, ptr noundef %5, i32 noundef %27, ptr noundef nonnull %13) #11
  %29 = load i32, ptr @hf_pn_io_mrp_domain_uuid, align 4
  %30 = call i32 @dissect_dcerpc_uuid_t(ptr noundef %0, i32 noundef %28, ptr noundef %2, ptr noundef %3, ptr noundef %5, i32 noundef %29, ptr noundef nonnull %14) #11
  %31 = load i32, ptr @hf_pn_io_mrp_role, align 4
  %32 = call i32 @dissect_dcerpc_uint16(ptr noundef %0, i32 noundef %30, ptr noundef %2, ptr noundef %3, ptr noundef %5, i32 noundef %31, ptr noundef nonnull %15) #11
  %33 = call i32 @dissect_pn_align4(ptr noundef %0, i32 noundef %32, ptr noundef %2, ptr noundef %3) #11
  %34 = load i32, ptr @hf_pn_io_mrp_length_domain_name, align 4
  %35 = call i32 @dissect_dcerpc_uint8(ptr noundef %0, i32 noundef %33, ptr noundef %2, ptr noundef %3, ptr noundef %5, i32 noundef %34, ptr noundef nonnull %16) #11
  %36 = load i32, ptr @hf_pn_io_mrp_domain_name, align 4
  %37 = load i8, ptr %16, align 1
  %38 = zext i8 %37 to i32
  %39 = call ptr @proto_tree_add_item(ptr noundef %3, i32 noundef %36, ptr noundef %0, i32 noundef %35, i32 noundef %38, i32 noundef 0) #11
  %40 = load i8, ptr %16, align 1
  %41 = zext i8 %40 to i32
  %42 = add i32 %35, %41
  %43 = call i32 @dissect_pn_align4(ptr noundef %0, i32 noundef %42, ptr noundef %2, ptr noundef %3) #11
  %44 = icmp sgt i32 %18, %43
  br i1 %44, label %.lr.ph, label %.loopexit

.lr.ph:                                           ; preds = %25, %dissect_a_block.exit
  %.05556 = phi i32 [ %45, %dissect_a_block.exit ], [ %43, %25 ]
  call void @llvm.lifetime.start.p0(i64 2, ptr nonnull %10)
  call void @llvm.lifetime.start.p0(i64 4, ptr nonnull %11)
  call void @llvm.lifetime.start.p0(i64 8, ptr nonnull %12)
  store i16 0, ptr %10, align 2
  store ptr null, ptr %12, align 8
  %45 = call fastcc i32 @dissect_block(ptr noundef %0, i32 noundef %.05556, ptr noundef %2, ptr noundef %3, ptr noundef %5, ptr noundef %10, ptr noundef %11, ptr noundef %12)
  %46 = load ptr, ptr %12, align 8
  %.not.i = icmp eq ptr %46, null
  br i1 %.not.i, label %dissect_a_block.exit, label %47

47:                                               ; preds = %.lr.ph
  call fastcc void @pnio_ar_info(ptr noundef %0, ptr noundef %2, ptr noundef %3, ptr noundef %46)
  br label %dissect_a_block.exit

dissect_a_block.exit:                             ; preds = %.lr.ph, %47
  call void @llvm.lifetime.end.p0(i64 2, ptr nonnull %10)
  call void @llvm.lifetime.end.p0(i64 4, ptr nonnull %11)
  call void @llvm.lifetime.end.p0(i64 8, ptr nonnull %12)
  %48 = icmp sgt i32 %18, %45
  br i1 %48, label %.lr.ph, label %.loopexit, !llvm.loop !68

.loopexit:                                        ; preds = %dissect_a_block.exit, %25, %21
  ret void
}